target datalayout = "e-m:e-p270:32:32-p271:32:32-p272:64:64-i64:64-i128:128-f80:128-n8:16:32:64-S128"
target triple = "x86_64-pc-linux-gnu"

%struct.Qureg = type { i32, i32, i32, i64, i64, i32, i32, %struct.ComplexArray, %struct.ComplexArray, %struct.ComplexArray, ptr, ptr, ptr, ptr, ptr, ptr }
%struct.ComplexArray = type { ptr, ptr }
%struct.QASMLogger = type { ptr, i32, i32, i32 }

@.str.1 = private unnamed_addr constant [2 x i8] c"q\00", align 1
@.str.2 = private unnamed_addr constant [2 x i8] c"c\00", align 1
@__func__.addStringToQASM = private unnamed_addr constant [16 x i8] c"addStringToQASM\00", align 1
@.str.3 = private unnamed_addr constant [3 x i8] c"%s\00", align 1
@qasmGateLabels = internal global [14 x ptr] [ptr @.str.13, ptr @.str.14, ptr @.str.15, ptr @.str.16, ptr @.str.17, ptr @.str.18, ptr @.str.19, ptr @.str.20, ptr @.str.21, ptr null, ptr @.str.22, ptr @.str.21, ptr @.str.23, ptr @.str.24], align 16
@.str.6 = private unnamed_addr constant [2 x i8] c"(\00", align 1
@.str.7 = private unnamed_addr constant [6 x i8] c"%.14g\00", align 1
@.str.8 = private unnamed_addr constant [2 x i8] c",\00", align 1
@.str.9 = private unnamed_addr constant [2 x i8] c")\00", align 1
@.str.10 = private unnamed_addr constant [2 x i8] c" \00", align 1
@.str.11 = private unnamed_addr constant [8 x i8] c"%s[%d],\00", align 1
@.str.12 = private unnamed_addr constant [9 x i8] c"%s[%d];\0A\00", align 1
@__func__.addGateToQASM = private unnamed_addr constant [14 x i8] c"addGateToQASM\00", align 1

; Function Attrs: nounwind uwtable
define void @addStringToQASM(ptr noundef byval(%struct.Qureg) align 8 %0, ptr noundef %1, i32 noundef %2) #0 {
  %4 = alloca ptr, align 8
  %5 = alloca i32, align 4
  %6 = alloca ptr, align 8
  %7 = alloca i32, align 4
  %8 = alloca i32, align 4
  %9 = alloca i32, align 4
  %10 = alloca ptr, align 8
  %11 = alloca i32, align 4
  store ptr %1, ptr %4, align 8, !tbaa !24
  store i32 %2, ptr %5, align 4, !tbaa !25
  call void @llvm.lifetime.start.p0(i64 8, ptr %6) #7
  %12 = getelementptr inbounds nuw %struct.Qureg, ptr %0, i32 0, i32 15
  %13 = load ptr, ptr %12, align 8, !tbaa !10
  %14 = getelementptr inbounds nuw %struct.QASMLogger, ptr %13, i32 0, i32 0
  %15 = load ptr, ptr %14, align 8, !tbaa !21
  store ptr %15, ptr %6, align 8, !tbaa !24
  call void @llvm.lifetime.start.p0(i64 4, ptr %7) #7
  %16 = getelementptr inbounds nuw %struct.Qureg, ptr %0, i32 0, i32 15
  %17 = load ptr, ptr %16, align 8, !tbaa !10
  %18 = getelementptr inbounds nuw %struct.QASMLogger, ptr %17, i32 0, i32 1
  %19 = load i32, ptr %18, align 8, !tbaa !20
  store i32 %19, ptr %7, align 4, !tbaa !25
  call void @llvm.lifetime.start.p0(i64 4, ptr %8) #7
  %20 = getelementptr inbounds nuw %struct.Qureg, ptr %0, i32 0, i32 15
  %21 = load ptr, ptr %20, align 8, !tbaa !10
  %22 = getelementptr inbounds nuw %struct.QASMLogger, ptr %21, i32 0, i32 2
  %23 = load i32, ptr %22, align 4, !tbaa !23
  store i32 %23, ptr %8, align 4, !tbaa !25
  %24 = load i32, ptr %5, align 4, !tbaa !25
  %25 = load i32, ptr %8, align 4, !tbaa !25
  %26 = add nsw i32 %24, %25
  %27 = load i32, ptr %7, align 4, !tbaa !25
  %28 = icmp sgt i32 %26, %27
  br i1 %28, label %29, label %57

29:                                               ; preds = %3
  call void @llvm.lifetime.start.p0(i64 4, ptr %9) #7
  %30 = load i32, ptr %7, align 4, !tbaa !25
  %31 = mul nsw i32 2, %30
  store i32 %31, ptr %9, align 4, !tbaa !25
  %32 = load i32, ptr %5, align 4, !tbaa !25
  %33 = load i32, ptr %8, align 4, !tbaa !25
  %34 = add nsw i32 %32, %33
  %35 = load i32, ptr %9, align 4, !tbaa !25
  %36 = icmp sgt i32 %34, %35
  br i1 %36, label %37, label %38

37:                                               ; preds = %29
  call void @raiseQASMBufferOverflow(ptr noundef @__func__.addStringToQASM)
  br label %38

38:                                               ; preds = %37, %29
  call void @llvm.lifetime.start.p0(i64 8, ptr %10) #7
  %39 = load i32, ptr %9, align 4, !tbaa !25
  %40 = sext i32 %39 to i64
  %41 = mul i64 %40, 1
  %42 = call noalias ptr @malloc(i64 noundef %41) #8
  store ptr %42, ptr %10, align 8, !tbaa !24
  %43 = load ptr, ptr %10, align 8, !tbaa !24
  %44 = load ptr, ptr %6, align 8, !tbaa !24
  %45 = call i32 (ptr, ptr, ...) @sprintf(ptr noundef %43, ptr noundef @.str.3, ptr noundef %44) #7
  %46 = load ptr, ptr %6, align 8, !tbaa !24
  call void @free(ptr noundef %46) #7
  %47 = load i32, ptr %9, align 4, !tbaa !25
  %48 = getelementptr inbounds nuw %struct.Qureg, ptr %0, i32 0, i32 15
  %49 = load ptr, ptr %48, align 8, !tbaa !10
  %50 = getelementptr inbounds nuw %struct.QASMLogger, ptr %49, i32 0, i32 1
  store i32 %47, ptr %50, align 8, !tbaa !20
  %51 = load ptr, ptr %10, align 8, !tbaa !24
  %52 = getelementptr inbounds nuw %struct.Qureg, ptr %0, i32 0, i32 15
  %53 = load ptr, ptr %52, align 8, !tbaa !10
  %54 = getelementptr inbounds nuw %struct.QASMLogger, ptr %53, i32 0, i32 0
  store ptr %51, ptr %54, align 8, !tbaa !21
  %55 = load i32, ptr %9, align 4, !tbaa !25
  store i32 %55, ptr %7, align 4, !tbaa !25
  %56 = load ptr, ptr %10, align 8, !tbaa !24
  store ptr %56, ptr %6, align 8, !tbaa !24
  call void @llvm.lifetime.end.p0(i64 8, ptr %10) #7
  call void @llvm.lifetime.end.p0(i64 4, ptr %9) #7
  br label %57

57:                                               ; preds = %38, %3
  call void @llvm.lifetime.start.p0(i64 4, ptr %11) #7
  %58 = load ptr, ptr %6, align 8, !tbaa !24
  %59 = load i32, ptr %8, align 4, !tbaa !25
  %60 = sext i32 %59 to i64
  %61 = getelementptr inbounds i8, ptr %58, i64 %60
  %62 = load i32, ptr %7, align 4, !tbaa !25
  %63 = load i32, ptr %8, align 4, !tbaa !25
  %64 = sub nsw i32 %62, %63
  %65 = sext i32 %64 to i64
  %66 = load ptr, ptr %4, align 8, !tbaa !24
  %67 = call i32 (ptr, i64, ptr, ...) @snprintf(ptr noundef %61, i64 noundef %65, ptr noundef @.str.3, ptr noundef %66) #7
  store i32 %67, ptr %11, align 4, !tbaa !25
  %68 = load i32, ptr %11, align 4, !tbaa !25
  %69 = getelementptr inbounds nuw %struct.Qureg, ptr %0, i32 0, i32 15
  %70 = load ptr, ptr %69, align 8, !tbaa !10
  %71 = getelementptr inbounds nuw %struct.QASMLogger, ptr %70, i32 0, i32 2
  %72 = load i32, ptr %71, align 4, !tbaa !23
  %73 = add nsw i32 %72, %68
  store i32 %73, ptr %71, align 4, !tbaa !23
  call void @llvm.lifetime.end.p0(i64 4, ptr %11) #7
  call void @llvm.lifetime.end.p0(i64 4, ptr %8) #7
  call void @llvm.lifetime.end.p0(i64 4, ptr %7) #7
  call void @llvm.lifetime.end.p0(i64 8, ptr %6) #7
  ret void
}

; Function Attrs: nounwind uwtable
define void @addGateToQASM(ptr noundef byval(%struct.Qureg) align 8 %0, i32 noundef %1, ptr noundef %2, i32 noundef %3, i32 noundef %4, ptr noundef %5, i32 noundef %6) #0 {
  %8 = alloca i32, align 4
  %9 = alloca ptr, align 8
  %10 = alloca i32, align 4
  %11 = alloca i32, align 4
  %12 = alloca ptr, align 8
  %13 = alloca i32, align 4
  %14 = alloca i32, align 4
  %15 = alloca [1025 x i8], align 16
  %16 = alloca i32, align 4
  %17 = alloca i32, align 4
  %18 = alloca i32, align 4
  store i32 %1, ptr %8, align 4, !tbaa !25
  store ptr %2, ptr %9, align 8, !tbaa !26
  store i32 %3, ptr %10, align 4, !tbaa !25
  store i32 %4, ptr %11, align 4, !tbaa !25
  store ptr %5, ptr %12, align 8, !tbaa !28
  store i32 %6, ptr %13, align 4, !tbaa !25
  call void @llvm.lifetime.start.p0(i64 4, ptr %14) #7
  store i32 0, ptr %14, align 4, !tbaa !25
  call void @llvm.lifetime.start.p0(i64 1025, ptr %15) #7
  call void @llvm.lifetime.start.p0(i64 4, ptr %16) #7
  store i32 0, ptr %16, align 4, !tbaa !25
  br label %19

19:                                               ; preds = %35, %7
  %20 = load i32, ptr %16, align 4, !tbaa !25
  %21 = load i32, ptr %10, align 4, !tbaa !25
  %22 = icmp slt i32 %20, %21
  br i1 %22, label %24, label %23

23:                                               ; preds = %19
  call void @llvm.lifetime.end.p0(i64 4, ptr %16) #7
  br label %38

24:                                               ; preds = %19
  %25 = getelementptr inbounds [1025 x i8], ptr %15, i64 0, i64 0
  %26 = load i32, ptr %14, align 4, !tbaa !25
  %27 = sext i32 %26 to i64
  %28 = getelementptr inbounds i8, ptr %25, i64 %27
  %29 = load i32, ptr %14, align 4, !tbaa !25
  %30 = sub nsw i32 1024, %29
  %31 = sext i32 %30 to i64
  %32 = call i32 (ptr, i64, ptr, ...) @snprintf(ptr noundef %28, i64 noundef %31, ptr noundef @.str.3, ptr noundef @.str.2) #7
  %33 = load i32, ptr %14, align 4, !tbaa !25
  %34 = add nsw i32 %33, %32
  store i32 %34, ptr %14, align 4, !tbaa !25
  br label %35

35:                                               ; preds = %24
  %36 = load i32, ptr %16, align 4, !tbaa !25
  %37 = add nsw i32 %36, 1
  store i32 %37, ptr %16, align 4, !tbaa !25
  br label %19

38:                                               ; preds = %23
  %39 = getelementptr inbounds [1025 x i8], ptr %15, i64 0, i64 0
  %40 = load i32, ptr %14, align 4, !tbaa !25
  %41 = sext i32 %40 to i64
  %42 = getelementptr inbounds i8, ptr %39, i64 %41
  %43 = load i32, ptr %14, align 4, !tbaa !25
  %44 = sub nsw i32 1024, %43
  %45 = sext i32 %44 to i64
  %46 = load i32, ptr %8, align 4, !tbaa !25
  %47 = zext i32 %46 to i64
  %48 = getelementptr inbounds nuw [14 x ptr], ptr @qasmGateLabels, i64 0, i64 %47
  %49 = load ptr, ptr %48, align 8, !tbaa !24
  %50 = call i32 (ptr, i64, ptr, ...) @snprintf(ptr noundef %42, i64 noundef %45, ptr noundef @.str.3, ptr noundef %49) #7
  %51 = load i32, ptr %14, align 4, !tbaa !25
  %52 = add nsw i32 %51, %50
  store i32 %52, ptr %14, align 4, !tbaa !25
  %53 = load i32, ptr %13, align 4, !tbaa !25
  %54 = icmp sgt i32 %53, 0
  br i1 %54, label %55, label %117

55:                                               ; preds = %38
  %56 = getelementptr inbounds [1025 x i8], ptr %15, i64 0, i64 0
  %57 = load i32, ptr %14, align 4, !tbaa !25
  %58 = sext i32 %57 to i64
  %59 = getelementptr inbounds i8, ptr %56, i64 %58
  %60 = load i32, ptr %14, align 4, !tbaa !25
  %61 = sub nsw i32 1024, %60
  %62 = sext i32 %61 to i64
  %63 = call i32 (ptr, i64, ptr, ...) @snprintf(ptr noundef %59, i64 noundef %62, ptr noundef @.str.6) #7
  %64 = load i32, ptr %14, align 4, !tbaa !25
  %65 = add nsw i32 %64, %63
  store i32 %65, ptr %14, align 4, !tbaa !25
  call void @llvm.lifetime.start.p0(i64 4, ptr %17) #7
  store i32 0, ptr %17, align 4, !tbaa !25
  br label %66

66:                                               ; preds = %103, %55
  %67 = load i32, ptr %17, align 4, !tbaa !25
  %68 = load i32, ptr %13, align 4, !tbaa !25
  %69 = icmp slt i32 %67, %68
  br i1 %69, label %71, label %70

70:                                               ; preds = %66
  call void @llvm.lifetime.end.p0(i64 4, ptr %17) #7
  br label %106

71:                                               ; preds = %66
  %72 = getelementptr inbounds [1025 x i8], ptr %15, i64 0, i64 0
  %73 = load i32, ptr %14, align 4, !tbaa !25
  %74 = sext i32 %73 to i64
  %75 = getelementptr inbounds i8, ptr %72, i64 %74
  %76 = load i32, ptr %14, align 4, !tbaa !25
  %77 = sub nsw i32 1024, %76
  %78 = sext i32 %77 to i64
  %79 = load ptr, ptr %12, align 8, !tbaa !28
  %80 = load i32, ptr %17, align 4, !tbaa !25
  %81 = sext i32 %80 to i64
  %82 = getelementptr inbounds double, ptr %79, i64 %81
  %83 = load double, ptr %82, align 8, !tbaa !29
  %84 = call i32 (ptr, i64, ptr, ...) @snprintf(ptr noundef %75, i64 noundef %78, ptr noundef @.str.7, double noundef %83) #7
  %85 = load i32, ptr %14, align 4, !tbaa !25
  %86 = add nsw i32 %85, %84
  store i32 %86, ptr %14, align 4, !tbaa !25
  %87 = load i32, ptr %17, align 4, !tbaa !25
  %88 = load i32, ptr %13, align 4, !tbaa !25
  %89 = sub nsw i32 %88, 1
  %90 = icmp ne i32 %87, %89
  br i1 %90, label %91, label %102

91:                                               ; preds = %71
  %92 = getelementptr inbounds [1025 x i8], ptr %15, i64 0, i64 0
  %93 = load i32, ptr %14, align 4, !tbaa !25
  %94 = sext i32 %93 to i64
  %95 = getelementptr inbounds i8, ptr %92, i64 %94
  %96 = load i32, ptr %14, align 4, !tbaa !25
  %97 = sub nsw i32 1024, %96
  %98 = sext i32 %97 to i64
  %99 = call i32 (ptr, i64, ptr, ...) @snprintf(ptr noundef %95, i64 noundef %98, ptr noundef @.str.8) #7
  %100 = load i32, ptr %14, align 4, !tbaa !25
  %101 = add nsw i32 %100, %99
  store i32 %101, ptr %14, align 4, !tbaa !25
  br label %102

102:                                              ; preds = %91, %71
  br label %103

103:                                              ; preds = %102
  %104 = load i32, ptr %17, align 4, !tbaa !25
  %105 = add nsw i32 %104, 1
  store i32 %105, ptr %17, align 4, !tbaa !25
  br label %66

106:                                              ; preds = %70
  %107 = getelementptr inbounds [1025 x i8], ptr %15, i64 0, i64 0
  %108 = load i32, ptr %14, align 4, !tbaa !25
  %109 = sext i32 %108 to i64
  %110 = getelementptr inbounds i8, ptr %107, i64 %109
  %111 = load i32, ptr %14, align 4, !tbaa !25
  %112 = sub nsw i32 1024, %111
  %113 = sext i32 %112 to i64
  %114 = call i32 (ptr, i64, ptr, ...) @snprintf(ptr noundef %110, i64 noundef %113, ptr noundef @.str.9) #7
  %115 = load i32, ptr %14, align 4, !tbaa !25
  %116 = add nsw i32 %115, %114
  store i32 %116, ptr %14, align 4, !tbaa !25
  br label %117

117:                                              ; preds = %106, %38
  %118 = getelementptr inbounds [1025 x i8], ptr %15, i64 0, i64 0
  %119 = load i32, ptr %14, align 4, !tbaa !25
  %120 = sext i32 %119 to i64
  %121 = getelementptr inbounds i8, ptr %118, i64 %120
  %122 = load i32, ptr %14, align 4, !tbaa !25
  %123 = sub nsw i32 1024, %122
  %124 = sext i32 %123 to i64
  %125 = call i32 (ptr, i64, ptr, ...) @snprintf(ptr noundef %121, i64 noundef %124, ptr noundef @.str.10) #7
  %126 = load i32, ptr %14, align 4, !tbaa !25
  %127 = add nsw i32 %126, %125
  store i32 %127, ptr %14, align 4, !tbaa !25
  call void @llvm.lifetime.start.p0(i64 4, ptr %18) #7
  store i32 0, ptr %18, align 4, !tbaa !25
  br label %128

128:                                              ; preds = %149, %117
  %129 = load i32, ptr %18, align 4, !tbaa !25
  %130 = load i32, ptr %10, align 4, !tbaa !25
  %131 = icmp slt i32 %129, %130
  br i1 %131, label %133, label %132

132:                                              ; preds = %128
  call void @llvm.lifetime.end.p0(i64 4, ptr %18) #7
  br label %152

133:                                              ; preds = %128
  %134 = getelementptr inbounds [1025 x i8], ptr %15, i64 0, i64 0
  %135 = load i32, ptr %14, align 4, !tbaa !25
  %136 = sext i32 %135 to i64
  %137 = getelementptr inbounds i8, ptr %134, i64 %136
  %138 = load i32, ptr %14, align 4, !tbaa !25
  %139 = sub nsw i32 1024, %138
  %140 = sext i32 %139 to i64
  %141 = load ptr, ptr %9, align 8, !tbaa !26
  %142 = load i32, ptr %18, align 4, !tbaa !25
  %143 = sext i32 %142 to i64
  %144 = getelementptr inbounds i32, ptr %141, i64 %143
  %145 = load i32, ptr %144, align 4, !tbaa !25
  %146 = call i32 (ptr, i64, ptr, ...) @snprintf(ptr noundef %137, i64 noundef %140, ptr noundef @.str.11, ptr noundef @.str.1, i32 noundef %145) #7
  %147 = load i32, ptr %14, align 4, !tbaa !25
  %148 = add nsw i32 %147, %146
  store i32 %148, ptr %14, align 4, !tbaa !25
  br label %149

149:                                              ; preds = %133
  %150 = load i32, ptr %18, align 4, !tbaa !25
  %151 = add nsw i32 %150, 1
  store i32 %151, ptr %18, align 4, !tbaa !25
  br label %128

152:                                              ; preds = %132
  %153 = getelementptr inbounds [1025 x i8], ptr %15, i64 0, i64 0
  %154 = load i32, ptr %14, align 4, !tbaa !25
  %155 = sext i32 %154 to i64
  %156 = getelementptr inbounds i8, ptr %153, i64 %155
  %157 = load i32, ptr %14, align 4, !tbaa !25
  %158 = sub nsw i32 1024, %157
  %159 = sext i32 %158 to i64
  %160 = load i32, ptr %11, align 4, !tbaa !25
  %161 = call i32 (ptr, i64, ptr, ...) @snprintf(ptr noundef %156, i64 noundef %159, ptr noundef @.str.12, ptr noundef @.str.1, i32 noundef %160) #7
  %162 = load i32, ptr %14, align 4, !tbaa !25
  %163 = add nsw i32 %162, %161
  store i32 %163, ptr %14, align 4, !tbaa !25
  %164 = load i32, ptr %14, align 4, !tbaa !25
  %165 = icmp sge i32 %164, 1024
  br i1 %165, label %166, label %167

166:                                              ; preds = %152
  call void @raiseQASMBufferOverflow(ptr noundef @__func__.addGateToQASM)
  br label %167

167:                                              ; preds = %166, %152
  %168 = getelementptr inbounds [1025 x i8], ptr %15, i64 0, i64 0
  %169 = load i32, ptr %14, align 4, !tbaa !25
  call void @addStringToQASM(ptr noundef byval(%struct.Qureg) align 8 %0, ptr noundef %168, i32 noundef %169)
  call void @llvm.lifetime.end.p0(i64 1025, ptr %15) #7
  call void @llvm.lifetime.end.p0(i64 4, ptr %14) #7
  ret void
}