; Function Attrs: nounwind uwtable
define void @addGateToQASM(ptr noundef readonly byval(%struct.Qureg) align 8 captures(none) %0, i32 noundef %1, ptr noundef readonly captures(none) %2, i32 noundef %3, i32 noundef %4, ptr noundef readonly captures(none) %5, i32 noundef %6) local_unnamed_addr #0 {
  %8 = alloca [1025 x i8], align 16
  call void @llvm.lifetime.start.p0(i64 1025, ptr nonnull %8) #16
  %9 = icmp sgt i32 %3, 0
  br i1 %9, label %.lr.ph, label %._crit_edge

._crit_edge:                                      ; preds = %.lr.ph, %7
  %.048.lcssa = phi i32 [ 0, %7 ], [ %25, %.lr.ph ]
  %10 = sext i32 %.048.lcssa to i64
  %11 = getelementptr inbounds i8, ptr %8, i64 %10
  %12 = sub nsw i32 1024, %.048.lcssa
  %13 = sext i32 %12 to i64
  %14 = zext i32 %1 to i64
  %15 = getelementptr inbounds nuw [14 x ptr], ptr @qasmGateLabels, i64 0, i64 %14
  %16 = load ptr, ptr %15, align 8, !tbaa !21
  %17 = call i32 (ptr, i64, ptr, ...) @snprintf(ptr noundef nonnull %11, i64 noundef %13, ptr noundef nonnull @.str.3, ptr noundef %16) #16
  %18 = add nsw i32 %17, %.048.lcssa
  %19 = icmp sgt i32 %6, 0
  br i1 %19, label %27, label %60

.lr.ph:                                           ; preds = %7, %.lr.ph
  %.04753 = phi i32 [ %26, %.lr.ph ], [ 0, %7 ]
  %.04852 = phi i32 [ %25, %.lr.ph ], [ 0, %7 ]
  %20 = sext i32 %.04852 to i64
  %21 = getelementptr inbounds i8, ptr %8, i64 %20
  %22 = sub nsw i32 1024, %.04852
  %23 = sext i32 %22 to i64
  %24 = call i32 (ptr, i64, ptr, ...) @snprintf(ptr noundef nonnull %21, i64 noundef %23, ptr noundef nonnull @.str.3, ptr noundef nonnull @.str.2) #16
  %25 = add nsw i32 %24, %.04852
  %26 = add nuw nsw i32 %.04753, 1
  %exitcond.not = icmp eq i32 %26, %3
  br i1 %exitcond.not, label %._crit_edge, label %.lr.ph

27:                                               ; preds = %._crit_edge
  %28 = sext i32 %18 to i64
  %29 = getelementptr inbounds i8, ptr %8, i64 %28
  %30 = sub nsw i32 1024, %18
  %31 = sext i32 %30 to i64
  %32 = call i32 (ptr, i64, ptr, ...) @snprintf(ptr noundef nonnull %29, i64 noundef %31, ptr noundef nonnull @.str.6) #16
  %33 = add nsw i32 %32, %18
  %34 = add nsw i32 %6, -1
  %35 = zext nneg i32 %34 to i64
  %wide.trip.count = zext nneg i32 %6 to i64
  br label %43

36:                                               ; preds = %59
  %37 = sext i32 %.3 to i64
  %38 = getelementptr inbounds i8, ptr %8, i64 %37
  %39 = sub nsw i32 1024, %.3
  %40 = sext i32 %39 to i64
  %41 = call i32 (ptr, i64, ptr, ...) @snprintf(ptr noundef nonnull %38, i64 noundef %40, ptr noundef nonnull @.str.9) #16
  %42 = add nsw i32 %41, %.3
  br label %60

43:                                               ; preds = %27, %59
  %indvars.iv = phi i64 [ 0, %27 ], [ %indvars.iv.next, %59 ]
  %.254 = phi i32 [ %33, %27 ], [ %.3, %59 ]
  %44 = sext i32 %.254 to i64
  %45 = getelementptr inbounds i8, ptr %8, i64 %44
  %46 = sub nsw i32 1024, %.254
  %47 = sext i32 %46 to i64
  %48 = getelementptr inbounds nuw double, ptr %5, i64 %indvars.iv
  %49 = load double, ptr %48, align 8, !tbaa !22
  %50 = call i32 (ptr, i64, ptr, ...) @snprintf(ptr noundef nonnull %45, i64 noundef %47, ptr noundef nonnull @.str.7, double noundef %49) #16
  %51 = add nsw i32 %50, %.254
  %.not = icmp eq i64 %indvars.iv, %35
  br i1 %.not, label %59, label %52

52:                                               ; preds = %43
  %53 = sext i32 %51 to i64
  %54 = getelementptr inbounds i8, ptr %8, i64 %53
  %55 = sub nsw i32 1024, %51
  %56 = sext i32 %55 to i64
  %57 = call i32 (ptr, i64, ptr, ...) @snprintf(ptr noundef nonnull %54, i64 noundef %56, ptr noundef nonnull @.str.8) #16
  %58 = add nsw i32 %57, %51
  br label %59

59:                                               ; preds = %43, %52
  %.3 = phi i32 [ %58, %52 ], [ %51, %43 ]
  %indvars.iv.next = add nuw nsw i64 %indvars.iv, 1
  %exitcond64.not = icmp eq i64 %indvars.iv.next, %wide.trip.count
  br i1 %exitcond64.not, label %36, label %43

60:                                               ; preds = %36, %._crit_edge
  %.1 = phi i32 [ %42, %36 ], [ %18, %._crit_edge ]
  %61 = sext i32 %.1 to i64
  %62 = getelementptr inbounds i8, ptr %8, i64 %61
  %63 = sub nsw i32 1024, %.1
  %64 = sext i32 %63 to i64
  %65 = call i32 (ptr, i64, ptr, ...) @snprintf(ptr noundef nonnull %62, i64 noundef %64, ptr noundef nonnull @.str.10) #16
  %66 = add nsw i32 %65, %.1
  br i1 %9, label %.lr.ph59.preheader, label %._crit_edge60

.lr.ph59.preheader:                               ; preds = %60
  %wide.trip.count68 = zext nneg i32 %3 to i64
  br label %.lr.ph59

._crit_edge60:                                    ; preds = %.lr.ph59, %60
  %.4.lcssa = phi i32 [ %66, %60 ], [ %81, %.lr.ph59 ]
  %67 = sext i32 %.4.lcssa to i64
  %68 = getelementptr inbounds i8, ptr %8, i64 %67
  %69 = sub nsw i32 1024, %.4.lcssa
  %70 = sext i32 %69 to i64
  %71 = call i32 (ptr, i64, ptr, ...) @snprintf(ptr noundef nonnull %68, i64 noundef %70, ptr noundef nonnull @.str.12, ptr noundef nonnull @.str.1, i32 noundef %4) #16
  %72 = add nsw i32 %71, %.4.lcssa
  %73 = icmp sgt i32 %72, 1023
  br i1 %73, label %82, label %83

.lr.ph59:                                         ; preds = %.lr.ph59.preheader, %.lr.ph59
  %indvars.iv65 = phi i64 [ 0, %.lr.ph59.preheader ], [ %indvars.iv.next66, %.lr.ph59 ]
  %.456 = phi i32 [ %66, %.lr.ph59.preheader ], [ %81, %.lr.ph59 ]
  %74 = sext i32 %.456 to i64
  %75 = getelementptr inbounds i8, ptr %8, i64 %74
  %76 = sub nsw i32 1024, %.456
  %77 = sext i32 %76 to i64
  %78 = getelementptr inbounds nuw i32, ptr %2, i64 %indvars.iv65
  %79 = load i32, ptr %78, align 4, !tbaa !24
  %80 = call i32 (ptr, i64, ptr, ...) @snprintf(ptr noundef nonnull %75, i64 noundef %77, ptr noundef nonnull @.str.11, ptr noundef nonnull @.str.1, i32 noundef %79) #16
  %81 = add nsw i32 %80, %.456
  %indvars.iv.next66 = add nuw nsw i64 %indvars.iv65, 1
  %exitcond69.not = icmp eq i64 %indvars.iv.next66, %wide.trip.count68
  br i1 %exitcond69.not, label %._crit_edge60, label %.lr.ph59

82:                                               ; preds = %._crit_edge60
  tail call void @raiseQASMBufferOverflow(ptr noundef nonnull @__func__.addGateToQASM) #16
  br label %83

83:                                               ; preds = %82, %._crit_edge60
  %.sroa.3.0..sroa_idx = getelementptr inbounds nuw i8, ptr %0, i64 128
  %.sroa.3.0.copyload = load ptr, ptr %.sroa.3.0..sroa_idx, align 8
  %84 = load ptr, ptr %.sroa.3.0.copyload, align 8, !tbaa !18
  %85 = getelementptr inbounds nuw i8, ptr %.sroa.3.0.copyload, i64 8
  %86 = load i32, ptr %85, align 8, !tbaa !17
  %87 = getelementptr inbounds nuw i8, ptr %.sroa.3.0.copyload, i64 12
  %88 = load i32, ptr %87, align 4, !tbaa !20
  %89 = add nsw i32 %88, %72
  %90 = icmp sgt i32 %89, %86
  br i1 %90, label %91, label %addStringToQASM.exit

91:                                               ; preds = %83
  %92 = shl nsw i32 %86, 1
  %93 = icmp sgt i32 %89, %92
  br i1 %93, label %94, label %95

94:                                               ; preds = %91
  tail call void @raiseQASMBufferOverflow(ptr noundef nonnull @__func__.addStringToQASM) #16
  br label %95

95:                                               ; preds = %94, %91
  %96 = sext i32 %92 to i64
  %97 = tail call noalias ptr @malloc(i64 noundef %96) #15
  %strcpy.i = tail call ptr @strcpy(ptr noundef nonnull dereferenceable(1) %97, ptr noundef nonnull dereferenceable(1) %84)
  tail call void @free(ptr noundef %84) #16
  store i32 %92, ptr %85, align 8, !tbaa !17
  store ptr %97, ptr %.sroa.3.0.copyload, align 8, !tbaa !18
  br label %addStringToQASM.exit

addStringToQASM.exit:                             ; preds = %83, %95
  %.020.i = phi i32 [ %92, %95 ], [ %86, %83 ]
  %.0.i = phi ptr [ %97, %95 ], [ %84, %83 ]
  %98 = sext i32 %88 to i64
  %99 = getelementptr inbounds i8, ptr %.0.i, i64 %98
  %100 = sub nsw i32 %.020.i, %88
  %101 = sext i32 %100 to i64
  %102 = call i32 (ptr, i64, ptr, ...) @snprintf(ptr noundef %99, i64 noundef %101, ptr noundef nonnull @.str.3, ptr noundef nonnull %8) #16
  %103 = load i32, ptr %87, align 4, !tbaa !20
  %104 = add nsw i32 %103, %102
  store i32 %104, ptr %87, align 4, !tbaa !20
  call void @llvm.lifetime.end.p0(i64 1025, ptr nonnull %8) #16
  ret void
}